; Function Attrs: mustprogress nofree norecurse nosync nounwind willreturn memory(write, argmem: readwrite, inaccessiblemem: none) uwtable
define hidden void @_ZN3euf9relevancy11set_enabledEb(ptr noundef nonnull align 8 captures(none) dereferenceable(672) initializes((8, 9)) %0, i1 noundef zeroext %1) local_unnamed_addr #6 align 2 {
  %3 = zext i1 %1 to i8
  %4 = getelementptr inbounds nuw i8, ptr %0, i64 8
  store i8 %3, ptr %4, align 8, !tbaa !3
  %5 = load ptr, ptr %0, align 8, !tbaa !62
  %6 = xor i1 %1, true
  %7 = zext i1 %6 to i8
  %8 = getelementptr inbounds nuw i8, ptr %5, i64 1969
  store i8 %7, ptr %8, align 1, !tbaa !444
  ret void
}